target datalayout = "e-m:e-p270:32:32-p271:32:32-p272:64:64-i64:64-i128:128-f80:128-n8:16:32:64-S128"
target triple = "x86_64-pc-linux-gnu"

; Function Attrs: alwaysinline nounwind willreturn memory(none) uwtable
define internal i32 @av_clip_uintp2_c(i32 noundef %0, i32 noundef %1) #2 {
  %3 = alloca i32, align 4
  %4 = alloca i32, align 4
  %5 = alloca i32, align 4
  store i32 %0, ptr %4, align 4, !tbaa !11
  store i32 %1, ptr %5, align 4, !tbaa !11
  %6 = load i32, ptr %4, align 4, !tbaa !11
  %7 = load i32, ptr %5, align 4, !tbaa !11
  %8 = shl i32 1, %7
  %9 = sub i32 %8, 1
  %10 = xor i32 %9, -1
  %11 = and i32 %6, %10
  %12 = icmp ne i32 %11, 0
  br i1 %12, label %13, label %21

13:                                               ; preds = %2
  %14 = load i32, ptr %4, align 4, !tbaa !11
  %15 = xor i32 %14, -1
  %16 = ashr i32 %15, 31
  %17 = load i32, ptr %5, align 4, !tbaa !11
  %18 = shl i32 1, %17
  %19 = sub i32 %18, 1
  %20 = and i32 %16, %19
  store i32 %20, ptr %3, align 4
  br label %23

21:                                               ; preds = %2
  %22 = load i32, ptr %4, align 4, !tbaa !11
  store i32 %22, ptr %3, align 4
  br label %23

23:                                               ; preds = %21, %13
  %24 = load i32, ptr %3, align 4
  ret i32 %24
}

; Function Attrs: nounwind uwtable
define void @ff_h264_idct_add_9_c(ptr noundef %0, ptr noundef %1, i32 noundef %2) #0 {
  %4 = alloca ptr, align 8
  %5 = alloca ptr, align 8
  %6 = alloca i32, align 4
  %7 = alloca i32, align 4
  %8 = alloca ptr, align 8
  %9 = alloca ptr, align 8
  %10 = alloca i32, align 4
  %11 = alloca i32, align 4
  %12 = alloca i32, align 4
  %13 = alloca i32, align 4
  %14 = alloca i32, align 4
  %15 = alloca i32, align 4
  %16 = alloca i32, align 4
  %17 = alloca i32, align 4
  store ptr %0, ptr %4, align 8, !tbaa !4
  store ptr %1, ptr %5, align 8, !tbaa !9
  store i32 %2, ptr %6, align 4, !tbaa !11
  call void @llvm.lifetime.start.p0(i64 4, ptr %7) #4
  call void @llvm.lifetime.start.p0(i64 8, ptr %8) #4
  %18 = load ptr, ptr %4, align 8, !tbaa !4
  store ptr %18, ptr %8, align 8, !tbaa !9
  call void @llvm.lifetime.start.p0(i64 8, ptr %9) #4
  %19 = load ptr, ptr %5, align 8, !tbaa !9
  store ptr %19, ptr %9, align 8, !tbaa !25
  %20 = load i32, ptr %6, align 4, !tbaa !11
  %21 = ashr i32 %20, 1
  store i32 %21, ptr %6, align 4, !tbaa !11
  %22 = load ptr, ptr %9, align 8, !tbaa !25
  %23 = getelementptr inbounds i32, ptr %22, i64 0
  %24 = load i32, ptr %23, align 4, !tbaa !11
  %25 = add nsw i32 %24, 32
  store i32 %25, ptr %23, align 4, !tbaa !11
  store i32 0, ptr %7, align 4, !tbaa !11
  br label %26

26:                                               ; preds = %116, %3
  %27 = load i32, ptr %7, align 4, !tbaa !11
  %28 = icmp slt i32 %27, 4
  br i1 %28, label %29, label %119

29:                                               ; preds = %26
  call void @llvm.lifetime.start.p0(i64 4, ptr %10) #4
  %30 = load ptr, ptr %9, align 8, !tbaa !25
  %31 = load i32, ptr %7, align 4, !tbaa !11
  %32 = add nsw i32 %31, 0
  %33 = sext i32 %32 to i64
  %34 = getelementptr inbounds i32, ptr %30, i64 %33
  %35 = load i32, ptr %34, align 4, !tbaa !11
  %36 = load ptr, ptr %9, align 8, !tbaa !25
  %37 = load i32, ptr %7, align 4, !tbaa !11
  %38 = add nsw i32 %37, 8
  %39 = sext i32 %38 to i64
  %40 = getelementptr inbounds i32, ptr %36, i64 %39
  %41 = load i32, ptr %40, align 4, !tbaa !11
  %42 = add i32 %35, %41
  store i32 %42, ptr %10, align 4, !tbaa !11
  call void @llvm.lifetime.start.p0(i64 4, ptr %11) #4
  %43 = load ptr, ptr %9, align 8, !tbaa !25
  %44 = load i32, ptr %7, align 4, !tbaa !11
  %45 = add nsw i32 %44, 0
  %46 = sext i32 %45 to i64
  %47 = getelementptr inbounds i32, ptr %43, i64 %46
  %48 = load i32, ptr %47, align 4, !tbaa !11
  %49 = load ptr, ptr %9, align 8, !tbaa !25
  %50 = load i32, ptr %7, align 4, !tbaa !11
  %51 = add nsw i32 %50, 8
  %52 = sext i32 %51 to i64
  %53 = getelementptr inbounds i32, ptr %49, i64 %52
  %54 = load i32, ptr %53, align 4, !tbaa !11
  %55 = sub i32 %48, %54
  store i32 %55, ptr %11, align 4, !tbaa !11
  call void @llvm.lifetime.start.p0(i64 4, ptr %12) #4
  %56 = load ptr, ptr %9, align 8, !tbaa !25
  %57 = load i32, ptr %7, align 4, !tbaa !11
  %58 = add nsw i32 %57, 4
  %59 = sext i32 %58 to i64
  %60 = getelementptr inbounds i32, ptr %56, i64 %59
  %61 = load i32, ptr %60, align 4, !tbaa !11
  %62 = ashr i32 %61, 1
  %63 = load ptr, ptr %9, align 8, !tbaa !25
  %64 = load i32, ptr %7, align 4, !tbaa !11
  %65 = add nsw i32 %64, 12
  %66 = sext i32 %65 to i64
  %67 = getelementptr inbounds i32, ptr %63, i64 %66
  %68 = load i32, ptr %67, align 4, !tbaa !11
  %69 = sub i32 %62, %68
  store i32 %69, ptr %12, align 4, !tbaa !11
  call void @llvm.lifetime.start.p0(i64 4, ptr %13) #4
  %70 = load ptr, ptr %9, align 8, !tbaa !25
  %71 = load i32, ptr %7, align 4, !tbaa !11
  %72 = add nsw i32 %71, 4
  %73 = sext i32 %72 to i64
  %74 = getelementptr inbounds i32, ptr %70, i64 %73
  %75 = load i32, ptr %74, align 4, !tbaa !11
  %76 = load ptr, ptr %9, align 8, !tbaa !25
  %77 = load i32, ptr %7, align 4, !tbaa !11
  %78 = add nsw i32 %77, 12
  %79 = sext i32 %78 to i64
  %80 = getelementptr inbounds i32, ptr %76, i64 %79
  %81 = load i32, ptr %80, align 4, !tbaa !11
  %82 = ashr i32 %81, 1
  %83 = add i32 %75, %82
  store i32 %83, ptr %13, align 4, !tbaa !11
  %84 = load i32, ptr %10, align 4, !tbaa !11
  %85 = load i32, ptr %13, align 4, !tbaa !11
  %86 = add i32 %84, %85
  %87 = load ptr, ptr %9, align 8, !tbaa !25
  %88 = load i32, ptr %7, align 4, !tbaa !11
  %89 = add nsw i32 %88, 0
  %90 = sext i32 %89 to i64
  %91 = getelementptr inbounds i32, ptr %87, i64 %90
  store i32 %86, ptr %91, align 4, !tbaa !11
  %92 = load i32, ptr %11, align 4, !tbaa !11
  %93 = load i32, ptr %12, align 4, !tbaa !11
  %94 = add i32 %92, %93
  %95 = load ptr, ptr %9, align 8, !tbaa !25
  %96 = load i32, ptr %7, align 4, !tbaa !11
  %97 = add nsw i32 %96, 4
  %98 = sext i32 %97 to i64
  %99 = getelementptr inbounds i32, ptr %95, i64 %98
  store i32 %94, ptr %99, align 4, !tbaa !11
  %100 = load i32, ptr %11, align 4, !tbaa !11
  %101 = load i32, ptr %12, align 4, !tbaa !11
  %102 = sub i32 %100, %101
  %103 = load ptr, ptr %9, align 8, !tbaa !25
  %104 = load i32, ptr %7, align 4, !tbaa !11
  %105 = add nsw i32 %104, 8
  %106 = sext i32 %105 to i64
  %107 = getelementptr inbounds i32, ptr %103, i64 %106
  store i32 %102, ptr %107, align 4, !tbaa !11
  %108 = load i32, ptr %10, align 4, !tbaa !11
  %109 = load i32, ptr %13, align 4, !tbaa !11
  %110 = sub i32 %108, %109
  %111 = load ptr, ptr %9, align 8, !tbaa !25
  %112 = load i32, ptr %7, align 4, !tbaa !11
  %113 = add nsw i32 %112, 12
  %114 = sext i32 %113 to i64
  %115 = getelementptr inbounds i32, ptr %111, i64 %114
  store i32 %110, ptr %115, align 4, !tbaa !11
  call void @llvm.lifetime.end.p0(i64 4, ptr %13) #4
  call void @llvm.lifetime.end.p0(i64 4, ptr %12) #4
  call void @llvm.lifetime.end.p0(i64 4, ptr %11) #4
  call void @llvm.lifetime.end.p0(i64 4, ptr %10) #4
  br label %116

116:                                              ; preds = %29
  %117 = load i32, ptr %7, align 4, !tbaa !11
  %118 = add nsw i32 %117, 1
  store i32 %118, ptr %7, align 4, !tbaa !11
  br label %26, !llvm.loop !43

119:                                              ; preds = %26
  store i32 0, ptr %7, align 4, !tbaa !11
  br label %120

120:                                              ; preds = %278, %119
  %121 = load i32, ptr %7, align 4, !tbaa !11
  %122 = icmp slt i32 %121, 4
  br i1 %122, label %123, label %281

123:                                              ; preds = %120
  call void @llvm.lifetime.start.p0(i64 4, ptr %14) #4
  %124 = load ptr, ptr %9, align 8, !tbaa !25
  %125 = load i32, ptr %7, align 4, !tbaa !11
  %126 = mul nsw i32 4, %125
  %127 = add nsw i32 0, %126
  %128 = sext i32 %127 to i64
  %129 = getelementptr inbounds i32, ptr %124, i64 %128
  %130 = load i32, ptr %129, align 4, !tbaa !11
  %131 = load ptr, ptr %9, align 8, !tbaa !25
  %132 = load i32, ptr %7, align 4, !tbaa !11
  %133 = mul nsw i32 4, %132
  %134 = add nsw i32 2, %133
  %135 = sext i32 %134 to i64
  %136 = getelementptr inbounds i32, ptr %131, i64 %135
  %137 = load i32, ptr %136, align 4, !tbaa !11
  %138 = add i32 %130, %137
  store i32 %138, ptr %14, align 4, !tbaa !11
  call void @llvm.lifetime.start.p0(i64 4, ptr %15) #4
  %139 = load ptr, ptr %9, align 8, !tbaa !25
  %140 = load i32, ptr %7, align 4, !tbaa !11
  %141 = mul nsw i32 4, %140
  %142 = add nsw i32 0, %141
  %143 = sext i32 %142 to i64
  %144 = getelementptr inbounds i32, ptr %139, i64 %143
  %145 = load i32, ptr %144, align 4, !tbaa !11
  %146 = load ptr, ptr %9, align 8, !tbaa !25
  %147 = load i32, ptr %7, align 4, !tbaa !11
  %148 = mul nsw i32 4, %147
  %149 = add nsw i32 2, %148
  %150 = sext i32 %149 to i64
  %151 = getelementptr inbounds i32, ptr %146, i64 %150
  %152 = load i32, ptr %151, align 4, !tbaa !11
  %153 = sub i32 %145, %152
  store i32 %153, ptr %15, align 4, !tbaa !11
  call void @llvm.lifetime.start.p0(i64 4, ptr %16) #4
  %154 = load ptr, ptr %9, align 8, !tbaa !25
  %155 = load i32, ptr %7, align 4, !tbaa !11
  %156 = mul nsw i32 4, %155
  %157 = add nsw i32 1, %156
  %158 = sext i32 %157 to i64
  %159 = getelementptr inbounds i32, ptr %154, i64 %158
  %160 = load i32, ptr %159, align 4, !tbaa !11
  %161 = ashr i32 %160, 1
  %162 = load ptr, ptr %9, align 8, !tbaa !25
  %163 = load i32, ptr %7, align 4, !tbaa !11
  %164 = mul nsw i32 4, %163
  %165 = add nsw i32 3, %164
  %166 = sext i32 %165 to i64
  %167 = getelementptr inbounds i32, ptr %162, i64 %166
  %168 = load i32, ptr %167, align 4, !tbaa !11
  %169 = sub i32 %161, %168
  store i32 %169, ptr %16, align 4, !tbaa !11
  call void @llvm.lifetime.start.p0(i64 4, ptr %17) #4
  %170 = load ptr, ptr %9, align 8, !tbaa !25
  %171 = load i32, ptr %7, align 4, !tbaa !11
  %172 = mul nsw i32 4, %171
  %173 = add nsw i32 1, %172
  %174 = sext i32 %173 to i64
  %175 = getelementptr inbounds i32, ptr %170, i64 %174
  %176 = load i32, ptr %175, align 4, !tbaa !11
  %177 = load ptr, ptr %9, align 8, !tbaa !25
  %178 = load i32, ptr %7, align 4, !tbaa !11
  %179 = mul nsw i32 4, %178
  %180 = add nsw i32 3, %179
  %181 = sext i32 %180 to i64
  %182 = getelementptr inbounds i32, ptr %177, i64 %181
  %183 = load i32, ptr %182, align 4, !tbaa !11
  %184 = ashr i32 %183, 1
  %185 = add i32 %176, %184
  store i32 %185, ptr %17, align 4, !tbaa !11
  %186 = load ptr, ptr %8, align 8, !tbaa !9
  %187 = load i32, ptr %7, align 4, !tbaa !11
  %188 = load i32, ptr %6, align 4, !tbaa !11
  %189 = mul nsw i32 0, %188
  %190 = add nsw i32 %187, %189
  %191 = sext i32 %190 to i64
  %192 = getelementptr inbounds i16, ptr %186, i64 %191
  %193 = load i16, ptr %192, align 2, !tbaa !13
  %194 = zext i16 %193 to i32
  %195 = load i32, ptr %14, align 4, !tbaa !11
  %196 = load i32, ptr %17, align 4, !tbaa !11
  %197 = add i32 %195, %196
  %198 = ashr i32 %197, 6
  %199 = add nsw i32 %194, %198
  %200 = call i32 @av_clip_uintp2_c(i32 noundef %199, i32 noundef 9) #5
  %201 = trunc i32 %200 to i16
  %202 = load ptr, ptr %8, align 8, !tbaa !9
  %203 = load i32, ptr %7, align 4, !tbaa !11
  %204 = load i32, ptr %6, align 4, !tbaa !11
  %205 = mul nsw i32 0, %204
  %206 = add nsw i32 %203, %205
  %207 = sext i32 %206 to i64
  %208 = getelementptr inbounds i16, ptr %202, i64 %207
  store i16 %201, ptr %208, align 2, !tbaa !13
  %209 = load ptr, ptr %8, align 8, !tbaa !9
  %210 = load i32, ptr %7, align 4, !tbaa !11
  %211 = load i32, ptr %6, align 4, !tbaa !11
  %212 = mul nsw i32 1, %211
  %213 = add nsw i32 %210, %212
  %214 = sext i32 %213 to i64
  %215 = getelementptr inbounds i16, ptr %209, i64 %214
  %216 = load i16, ptr %215, align 2, !tbaa !13
  %217 = zext i16 %216 to i32
  %218 = load i32, ptr %15, align 4, !tbaa !11
  %219 = load i32, ptr %16, align 4, !tbaa !11
  %220 = add i32 %218, %219
  %221 = ashr i32 %220, 6
  %222 = add nsw i32 %217, %221
  %223 = call i32 @av_clip_uintp2_c(i32 noundef %222, i32 noundef 9) #5
  %224 = trunc i32 %223 to i16
  %225 = load ptr, ptr %8, align 8, !tbaa !9
  %226 = load i32, ptr %7, align 4, !tbaa !11
  %227 = load i32, ptr %6, align 4, !tbaa !11
  %228 = mul nsw i32 1, %227
  %229 = add nsw i32 %226, %228
  %230 = sext i32 %229 to i64
  %231 = getelementptr inbounds i16, ptr %225, i64 %230
  store i16 %224, ptr %231, align 2, !tbaa !13
  %232 = load ptr, ptr %8, align 8, !tbaa !9
  %233 = load i32, ptr %7, align 4, !tbaa !11
  %234 = load i32, ptr %6, align 4, !tbaa !11
  %235 = mul nsw i32 2, %234
  %236 = add nsw i32 %233, %235
  %237 = sext i32 %236 to i64
  %238 = getelementptr inbounds i16, ptr %232, i64 %237
  %239 = load i16, ptr %238, align 2, !tbaa !13
  %240 = zext i16 %239 to i32
  %241 = load i32, ptr %15, align 4, !tbaa !11
  %242 = load i32, ptr %16, align 4, !tbaa !11
  %243 = sub i32 %241, %242
  %244 = ashr i32 %243, 6
  %245 = add nsw i32 %240, %244
  %246 = call i32 @av_clip_uintp2_c(i32 noundef %245, i32 noundef 9) #5
  %247 = trunc i32 %246 to i16
  %248 = load ptr, ptr %8, align 8, !tbaa !9
  %249 = load i32, ptr %7, align 4, !tbaa !11
  %250 = load i32, ptr %6, align 4, !tbaa !11
  %251 = mul nsw i32 2, %250
  %252 = add nsw i32 %249, %251
  %253 = sext i32 %252 to i64
  %254 = getelementptr inbounds i16, ptr %248, i64 %253
  store i16 %247, ptr %254, align 2, !tbaa !13
  %255 = load ptr, ptr %8, align 8, !tbaa !9
  %256 = load i32, ptr %7, align 4, !tbaa !11
  %257 = load i32, ptr %6, align 4, !tbaa !11
  %258 = mul nsw i32 3, %257
  %259 = add nsw i32 %256, %258
  %260 = sext i32 %259 to i64
  %261 = getelementptr inbounds i16, ptr %255, i64 %260
  %262 = load i16, ptr %261, align 2, !tbaa !13
  %263 = zext i16 %262 to i32
  %264 = load i32, ptr %14, align 4, !tbaa !11
  %265 = load i32, ptr %17, align 4, !tbaa !11
  %266 = sub i32 %264, %265
  %267 = ashr i32 %266, 6
  %268 = add nsw i32 %263, %267
  %269 = call i32 @av_clip_uintp2_c(i32 noundef %268, i32 noundef 9) #5
  %270 = trunc i32 %269 to i16
  %271 = load ptr, ptr %8, align 8, !tbaa !9
  %272 = load i32, ptr %7, align 4, !tbaa !11
  %273 = load i32, ptr %6, align 4, !tbaa !11
  %274 = mul nsw i32 3, %273
  %275 = add nsw i32 %272, %274
  %276 = sext i32 %275 to i64
  %277 = getelementptr inbounds i16, ptr %271, i64 %276
  store i16 %270, ptr %277, align 2, !tbaa !13
  call void @llvm.lifetime.end.p0(i64 4, ptr %17) #4
  call void @llvm.lifetime.end.p0(i64 4, ptr %16) #4
  call void @llvm.lifetime.end.p0(i64 4, ptr %15) #4
  call void @llvm.lifetime.end.p0(i64 4, ptr %14) #4
  br label %278

278:                                              ; preds = %123
  %279 = load i32, ptr %7, align 4, !tbaa !11
  %280 = add nsw i32 %279, 1
  store i32 %280, ptr %7, align 4, !tbaa !11
  br label %120, !llvm.loop !44

281:                                              ; preds = %120
  %282 = load ptr, ptr %9, align 8, !tbaa !25
  call void @llvm.memset.p0.i64(ptr align 4 %282, i8 0, i64 64, i1 false)
  call void @llvm.lifetime.end.p0(i64 8, ptr %9) #4
  call void @llvm.lifetime.end.p0(i64 8, ptr %8) #4
  call void @llvm.lifetime.end.p0(i64 4, ptr %7) #4
  ret void
}